; Function Attrs: nounwind sspstrong uwtable
define internal i64 @path_eq(i64 noundef %0, i64 noundef %1) #0 {
  %3 = load i64, ptr @rb_cPathname, align 8, !tbaa !6
  %4 = tail call i64 @rb_obj_is_kind_of(i64 noundef %1, i64 noundef %3) #7
  %.not = icmp eq i64 %4, 0
  br i1 %.not, label %29, label %5

5:                                                ; preds = %2
  %6 = load i64, ptr @id_at_path, align 8, !tbaa !6
  %7 = tail call i64 @rb_ivar_get(i64 noundef %0, i64 noundef %6) #7
  %8 = icmp eq i64 %7, 0
  %9 = and i64 %7, 7
  %10 = icmp ne i64 %9, 0
  %11 = or i1 %8, %10
  br i1 %11, label %rbimpl_RB_TYPE_P_fastpath.exit.thread.i, label %rbimpl_RB_TYPE_P_fastpath.exit.i

rbimpl_RB_TYPE_P_fastpath.exit.i:                 ; preds = %5
  %12 = inttoptr i64 %7 to ptr
  %13 = load i64, ptr %12, align 8, !tbaa !10
  %14 = and i64 %13, 31
  %15 = icmp eq i64 %14, 5
  br i1 %15, label %get_strpath.exit, label %rbimpl_RB_TYPE_P_fastpath.exit.thread.i

rbimpl_RB_TYPE_P_fastpath.exit.thread.i:          ; preds = %rbimpl_RB_TYPE_P_fastpath.exit.i, %5
  %16 = load i64, ptr @rb_eTypeError, align 8, !tbaa !6
  tail call void (i64, ptr, ...) @rb_raise(i64 noundef %16, ptr noundef nonnull @.str.91) #9
  unreachable

get_strpath.exit:                                 ; preds = %rbimpl_RB_TYPE_P_fastpath.exit.i
  %17 = load i64, ptr @id_at_path, align 8, !tbaa !6
  %18 = tail call i64 @rb_ivar_get(i64 noundef %1, i64 noundef %17) #7
  %19 = icmp eq i64 %18, 0
  %20 = and i64 %18, 7
  %21 = icmp ne i64 %20, 0
  %22 = or i1 %19, %21
  br i1 %22, label %rbimpl_RB_TYPE_P_fastpath.exit.thread.i5, label %rbimpl_RB_TYPE_P_fastpath.exit.i4

rbimpl_RB_TYPE_P_fastpath.exit.i4:                ; preds = %get_strpath.exit
  %23 = inttoptr i64 %18 to ptr
  %24 = load i64, ptr %23, align 8, !tbaa !10
  %25 = and i64 %24, 31
  %26 = icmp eq i64 %25, 5
  br i1 %26, label %get_strpath.exit6, label %rbimpl_RB_TYPE_P_fastpath.exit.thread.i5

rbimpl_RB_TYPE_P_fastpath.exit.thread.i5:         ; preds = %rbimpl_RB_TYPE_P_fastpath.exit.i4, %get_strpath.exit
  %27 = load i64, ptr @rb_eTypeError, align 8, !tbaa !6
  tail call void (i64, ptr, ...) @rb_raise(i64 noundef %27, ptr noundef nonnull @.str.91) #9
  unreachable

get_strpath.exit6:                                ; preds = %rbimpl_RB_TYPE_P_fastpath.exit.i4
  %28 = tail call i64 @rb_str_equal(i64 noundef %7, i64 noundef %18) #7
  br label %29

29:                                               ; preds = %2, %get_strpath.exit6
  %.0 = phi i64 [ %28, %get_strpath.exit6 ], [ 0, %2 ]
  ret i64 %.0
}